target datalayout = "e-m:e-p270:32:32-p271:32:32-p272:64:64-i64:64-i128:128-f80:128-n8:16:32:64-S128"
target triple = "x86_64-pc-linux-gnu"

; Function Attrs: nounwind uwtable
define internal i32 @If_CutPinDelayGet(i64 noundef %0, i32 noundef %1) #0 {
  %3 = alloca i64, align 8
  %4 = alloca i32, align 4
  store i64 %0, ptr %3, align 8
  store i32 %1, ptr %4, align 4
  %5 = load i64, ptr %3, align 8
  %6 = load i32, ptr %4, align 4
  %7 = shl i32 %6, 2
  %8 = zext i32 %7 to i64
  %9 = lshr i64 %5, %8
  %10 = and i64 %9, 15
  %11 = trunc i64 %10 to i32
  ret i32 %11
}

; Function Attrs: nounwind uwtable
define internal void @If_CutPinDelayTranslate(i64 noundef %0, i32 noundef %1, ptr noundef %2) #0 {
  %4 = alloca i64, align 8
  %5 = alloca i32, align 4
  %6 = alloca ptr, align 8
  %7 = alloca i32, align 4
  %8 = alloca i32, align 4
  store i64 %0, ptr %4, align 8
  store i32 %1, ptr %5, align 4
  store ptr %2, ptr %6, align 8
  store i32 0, ptr %7, align 4
  br label %9

9:                                                ; preds = %24, %3
  %10 = load i32, ptr %7, align 4
  %11 = load i32, ptr %5, align 4
  %12 = icmp slt i32 %10, %11
  br i1 %12, label %13, label %27

13:                                               ; preds = %9
  %14 = load i64, ptr %4, align 8
  %15 = load i32, ptr %7, align 4
  %16 = call i32 @If_CutPinDelayGet(i64 noundef %14, i32 noundef %15)
  store i32 %16, ptr %8, align 4
  %17 = load i32, ptr %8, align 4
  %18 = sub nsw i32 %17, 1
  %19 = trunc i32 %18 to i8
  %20 = load ptr, ptr %6, align 8
  %21 = load i32, ptr %7, align 4
  %22 = sext i32 %21 to i64
  %23 = getelementptr inbounds i8, ptr %20, i64 %22
  store i8 %19, ptr %23, align 1
  br label %24

24:                                               ; preds = %13
  %25 = load i32, ptr %7, align 4
  %26 = add nsw i32 %25, 1
  store i32 %26, ptr %7, align 4
  br label %9, !llvm.loop !15

27:                                               ; preds = %9
  ret void
}

; Function Attrs: nounwind uwtable
define internal i64 @If_CutPinDelayInit(i32 noundef %0) #0 {
  %2 = alloca i32, align 4
  store i32 %0, ptr %2, align 4
  %3 = load i32, ptr %2, align 4
  %4 = shl i32 %3, 2
  %5 = zext i32 %4 to i64
  %6 = shl i64 1, %5
  ret i64 %6
}

; Function Attrs: nounwind uwtable
define i32 @If_CutSopBalancePinDelaysIntInt(ptr noundef %0, ptr noundef %1, i32 noundef %2, ptr noundef %3) #0 {
  %5 = alloca ptr, align 8
  %6 = alloca ptr, align 8
  %7 = alloca i32, align 4
  %8 = alloca ptr, align 8
  %9 = alloca i32, align 4
  %10 = alloca i32, align 4
  %11 = alloca i64, align 8
  %12 = alloca [15 x i64], align 16
  store ptr %0, ptr %5, align 8
  store ptr %1, ptr %6, align 8
  store i32 %2, ptr %7, align 4
  store ptr %3, ptr %8, align 8
  store i32 0, ptr %9, align 4
  br label %13

13:                                               ; preds = %23, %4
  %14 = load i32, ptr %9, align 4
  %15 = load i32, ptr %7, align 4
  %16 = icmp slt i32 %14, %15
  br i1 %16, label %17, label %26

17:                                               ; preds = %13
  %18 = load i32, ptr %9, align 4
  %19 = call i64 @If_CutPinDelayInit(i32 noundef %18)
  %20 = load i32, ptr %9, align 4
  %21 = sext i32 %20 to i64
  %22 = getelementptr inbounds [15 x i64], ptr %12, i64 0, i64 %21
  store i64 %19, ptr %22, align 8
  br label %23

23:                                               ; preds = %17
  %24 = load i32, ptr %9, align 4
  %25 = add nsw i32 %24, 1
  store i32 %25, ptr %9, align 4
  br label %13, !llvm.loop !14

26:                                               ; preds = %13
  %27 = load ptr, ptr %5, align 8
  %28 = load ptr, ptr %6, align 8
  %29 = getelementptr inbounds [15 x i64], ptr %12, i64 0, i64 0
  %30 = load i32, ptr %7, align 4
  %31 = call i32 @If_CutSopBalancePinDelaysInt(ptr noundef %27, ptr noundef %28, ptr noundef %29, i32 noundef %30, ptr noundef %11)
  store i32 %31, ptr %10, align 4
  %32 = load i64, ptr %11, align 8
  %33 = load i32, ptr %7, align 4
  %34 = load ptr, ptr %8, align 8
  call void @If_CutPinDelayTranslate(i64 noundef %32, i32 noundef %33, ptr noundef %34)
  %35 = load i32, ptr %10, align 4
  ret i32 %35
}