; Function Attrs: nofree norecurse nosync nounwind memory(read, argmem: readwrite, inaccessiblemem: none) uwtable
define i32 @If_CutSopBalancePinDelaysIntInt(ptr noundef readonly captures(none) %0, ptr noundef readonly captures(none) %1, i32 noundef %2, ptr noundef writeonly captures(none) %3) local_unnamed_addr #0 {
  %5 = alloca i64, align 8
  %6 = alloca [15 x i64], align 16
  %7 = icmp sgt i32 %2, 0
  br i1 %7, label %.lr.ph.preheader, label %._crit_edge.thread

._crit_edge.thread:                               ; preds = %4
  %8 = call i32 @If_CutSopBalancePinDelaysInt(ptr noundef %0, ptr noundef %1, ptr noundef nonnull %6, i32 noundef %2, ptr noundef nonnull %5)
  br label %If_CutPinDelayTranslate.exit

.lr.ph.preheader:                                 ; preds = %4
  %wide.trip.count = zext nneg i32 %2 to i64
  br label %.lr.ph

.lr.ph:                                           ; preds = %.lr.ph.preheader, %.lr.ph
  %indvars.iv = phi i64 [ 0, %.lr.ph.preheader ], [ %indvars.iv.next, %.lr.ph ]
  %9 = shl i64 %indvars.iv, 2
  %10 = and i64 %9, 4294967292
  %11 = shl nuw i64 1, %10
  %12 = getelementptr inbounds nuw [15 x i64], ptr %6, i64 0, i64 %indvars.iv
  store i64 %11, ptr %12, align 8
  %indvars.iv.next = add nuw nsw i64 %indvars.iv, 1
  %exitcond.not = icmp eq i64 %indvars.iv.next, %wide.trip.count
  br i1 %exitcond.not, label %._crit_edge, label %.lr.ph, !llvm.loop !15

._crit_edge:                                      ; preds = %.lr.ph
  %13 = call i32 @If_CutSopBalancePinDelaysInt(ptr noundef %0, ptr noundef %1, ptr noundef nonnull %6, i32 noundef %2, ptr noundef nonnull %5)
  %14 = load i64, ptr %5, align 8
  %wide.trip.count.i = zext nneg i32 %2 to i64
  br label %.lr.ph.i

.lr.ph.i:                                         ; preds = %.lr.ph.i, %._crit_edge
  %indvars.iv.i = phi i64 [ 0, %._crit_edge ], [ %indvars.iv.next.i, %.lr.ph.i ]
  %15 = shl i64 %indvars.iv.i, 2
  %16 = and i64 %15, 4294967292
  %17 = lshr i64 %14, %16
  %18 = trunc i64 %17 to i8
  %19 = and i8 %18, 15
  %20 = add nsw i8 %19, -1
  %21 = getelementptr inbounds nuw i8, ptr %3, i64 %indvars.iv.i
  store i8 %20, ptr %21, align 1
  %indvars.iv.next.i = add nuw nsw i64 %indvars.iv.i, 1
  %exitcond.not.i = icmp eq i64 %indvars.iv.next.i, %wide.trip.count.i
  br i1 %exitcond.not.i, label %If_CutPinDelayTranslate.exit, label %.lr.ph.i, !llvm.loop !16

If_CutPinDelayTranslate.exit:                     ; preds = %.lr.ph.i, %._crit_edge.thread
  %22 = phi i32 [ %8, %._crit_edge.thread ], [ %13, %.lr.ph.i ]
  ret i32 %22
}